(dp0
S'start_time'
p1
F1343906853.619552
sS'data'
p2
(lp3
(dp4
S'lowGamma'
p5
I0
sS'poorSignalLevel'
p6
I25
sS'highGamma'
p7
I0
sS'highAlpha'
p8
I0
sS'attention'
p9
I0
sS'highBeta'
p10
I1
sS'label'
p11
S'Blue'
p12
sS'delta'
p13
I34
sS'lowAlpha'
p14
I1
sS'time'
p15
F0.01771998405456543
sS'theta'
p16
I1
sS'lowBeta'
p17
I0
sS'meditation'
p18
I0
sa(dp19
g5
I15014
sg6
I25
sg7
I13771
sg8
I53147
sg9
I0
sg10
I12794
sg11
g12
sg13
I919872
sg14
I75583
sg15
F0.017731189727783203
sg16
I391060
sg17
I13850
sg18
I0
sa(dp20
g5
I22082
sg6
I0
sg7
I17229
sg8
I10004
sg9
I0
sg10
I8759
sg11
g12
sg13
I1118802
sg14
I21222
sg15
F0.017735004425048828
sg16
I221380
sg17
I8589
sg18
I0
sa(dp21
g5
I3829
sg6
I0
sg7
I2855
sg8
I2273
sg9
I0
sg10
I5323
sg11
g12
sg13
I215177
sg14
I4099
sg15
F0.017739057540893555
sg16
I19416
sg17
I1973
sg18
I0
sa(dp22
g5
I3766
sg6
I0
sg7
I2015
sg8
I1510
sg9
I0
sg10
I3809
sg11
g12
sg13
I85924
sg14
I2295
sg15
F0.01774311065673828
sg16
I83647
sg17
I3584
sg18
I0
sa(dp23
g5
I6336
sg6
I0
sg7
I3491
sg8
I9683
sg9
I44
sg10
I13850
sg11
g12
sg13
I432217
sg14
I26174
sg15
F0.366746187210083
sg16
I88733
sg17
I13888
sg18
I53
sa(dp24
g5
I1697
sg6
I0
sg7
I1155
sg8
I2826
sg9
I51
sg10
I1447
sg11
g12
sg13
I647253
sg14
I4254
sg15
F1.3701190948486328
sg16
I5253
sg17
I795
sg18
I77
sa(dp25
g5
I19598
sg6
I0
sg7
I10397
sg8
I31118
sg9
I51
sg10
I14238
sg11
g12
sg13
I859376
sg14
I41723
sg15
F2.3376240730285645
sg16
I138738
sg17
I24511
sg18
I91
sa(dp26
g5
I31393
sg6
I0
sg7
I18506
sg8
I15748
sg9
I51
sg10
I6141
sg11
g12
sg13
I223576
sg14
I16754
sg15
F3.3694581985473633
sg16
I56389
sg17
I12141
sg18
I100
sa(dp27
g5
I10946
sg6
I0
sg7
I10160
sg8
I6422
sg9
I63
sg10
I16974
sg11
g12
sg13
I314372
sg14
I4952
sg15
F4.370235204696655
sg16
I52203
sg17
I4654
sg18
I100
sa(dp28
g5
I11304
sg6
I0
sg7
I11065
sg8
I12457
sg9
I64
sg10
I6702
sg11
S'Red'
p29
sg13
I589595
sg14
I6839
sg15
F5.356654167175293
sg16
I36722
sg17
I11155
sg18
I90
sa(dp30
g5
I8167
sg6
I0
sg7
I12707
sg8
I14901
sg9
I81
sg10
I19557
sg11
g29
sg13
I307716
sg14
I4839
sg15
F6.340687990188599
sg16
I45902
sg17
I13136
sg18
I84
sa(dp31
g5
I17467
sg6
I0
sg7
I6106
sg8
I14830
sg9
I100
sg10
I25727
sg11
g29
sg13
I289709
sg14
I24562
sg15
F7.342203140258789
sg16
I17707
sg17
I11045
sg18
I90
sa(dp32
g5
I11998
sg6
I0
sg7
I8136
sg8
I23319
sg9
I100
sg10
I24243
sg11
g29
sg13
I399372
sg14
I13465
sg15
F8.32572317123413
sg16
I46712
sg17
I8721
sg18
I100
sa(dp33
g5
I13490
sg6
I0
sg7
I3593
sg8
I26535
sg9
I100
sg10
I12896
sg11
g29
sg13
I227015
sg14
I7830
sg15
F9.325108051300049
sg16
I41683
sg17
I9660
sg18
I100
sa(dp34
g5
I16268
sg6
I0
sg7
I4642
sg8
I7390
sg9
I100
sg10
I16135
sg11
S'Green'
p35
sg13
I158670
sg14
I20695
sg15
F10.320509195327759
sg16
I40980
sg17
I13518
sg18
I100
sa(dp36
g5
I7662
sg6
I0
sg7
I11846
sg8
I4253
sg9
I100
sg10
I20910
sg11
g35
sg13
I185528
sg14
I12999
sg15
F11.328481197357178
sg16
I19062
sg17
I2996
sg18
I100
sa(dp37
g5
I7861
sg6
I0
sg7
I14800
sg8
I11523
sg9
I93
sg10
I6734
sg11
g35
sg13
I70943
sg14
I3543
sg15
F12.312560081481934
sg16
I42907
sg17
I9379
sg18
I100
sa(dp38
g5
I8633
sg6
I0
sg7
I8154
sg8
I3457
sg9
I91
sg10
I8928
sg11
g35
sg13
I399661
sg14
I16191
sg15
F13.296694993972778
sg16
I36193
sg17
I19016
sg18
I93
sa(dp39
g5
I12934
sg6
I0
sg7
I8127
sg8
I1000
sg9
I91
sg10
I9589
sg11
g35
sg13
I133614
sg14
I14342
sg15
F14.31207799911499
sg16
I20344
sg17
I7635
sg18
I93
sa(dp40
g5
I16073
sg6
I0
sg7
I9485
sg8
I17189
sg9
I77
sg10
I12287
sg11
g12
sg13
I215441
sg14
I6881
sg15
F15.315193176269531
sg16
I54712
sg17
I11112
sg18
I88
sa(dp41
g5
I23210
sg6
I0
sg7
I9195
sg8
I34976
sg9
I67
sg10
I17155
sg11
g12
sg13
I415242
sg14
I52211
sg15
F16.28095507621765
sg16
I247187
sg17
I29945
sg18
I90
sa(dp42
g5
I5974
sg6
I0
sg7
I3321
sg8
I2069
sg9
I64
sg10
I4891
sg11
g12
sg13
I388062
sg14
I3111
sg15
F17.283249139785767
sg16
I39451
sg17
I6171
sg18
I80
sa(dp43
g5
I2709
sg6
I0
sg7
I1988
sg8
I2089
sg9
I69
sg10
I5167
sg11
g12
sg13
I144377
sg14
I963
sg15
F18.284131050109863
sg16
I9906
sg17
I2857
sg18
I69
sa(dp44
g5
I31942
sg6
I0
sg7
I19497
sg8
I20963
sg9
I66
sg10
I18456
sg11
g12
sg13
I1248902
sg14
I23793
sg15
F19.268845081329346
sg16
I115050
sg17
I31706
sg18
I67
sa(dp45
g5
I11014
sg6
I0
sg7
I6490
sg8
I2265
sg9
I84
sg10
I13611
sg11
g29
sg13
I348942
sg14
I18156
sg15
F20.28691816329956
sg16
I33045
sg17
I11494
sg18
I69
sa(dp46
g5
I14244
sg6
I0
sg7
I14786
sg8
I20059
sg9
I93
sg10
I10421
sg11
g29
sg13
I294805
sg14
I6904
sg15
F21.26803708076477
sg16
I21238
sg17
I12036
sg18
I90
sa(dp47
g5
I15044
sg6
I0
sg7
I12519
sg8
I9136
sg9
I93
sg10
I13319
sg11
g29
sg13
I131635
sg14
I10996
sg15
F22.270897150039673
sg16
I10770
sg17
I9430
sg18
I100
sa(dp48
g5
I18061
sg6
I0
sg7
I8674
sg8
I2646
sg9
I100
sg10
I8022
sg11
g29
sg13
I676294
sg14
I5308
sg15
F23.25504422187805
sg16
I24033
sg17
I8592
sg18
I100
sa(dp49
g5
I6978
sg6
I0
sg7
I22137
sg8
I8573
sg9
I100
sg10
I30846
sg11
g29
sg13
I164148
sg14
I12148
sg15
F24.255726099014282
sg16
I93079
sg17
I25025
sg18
I91
sa(dp50
g5
I2774
sg6
I0
sg7
I2116
sg8
I6835
sg9
I96
sg10
I1900
sg11
g35
sg13
I195474
sg14
I2092
sg15
F25.25731110572815
sg16
I5841
sg17
I2176
sg18
I94
sa(dp51
g5
I15888
sg6
I0
sg7
I19185
sg8
I56813
sg9
I70
sg10
I19367
sg11
g35
sg13
I1295171
sg14
I56708
sg15
F26.27228307723999
sg16
I261843
sg17
I40223
sg18
I90
sa(dp52
g5
I26744
sg6
I0
sg7
I15476
sg8
I21097
sg9
I69
sg10
I17570
sg11
g35
sg13
I636652
sg14
I19936
sg15
F27.24204707145691
sg16
I44482
sg17
I30394
sg18
I97
sa(dp53
g5
I10071
sg6
I0
sg7
I8865
sg8
I4332
sg9
I77
sg10
I29671
sg11
g35
sg13
I69085
sg14
I1918
sg15
F28.239782094955444
sg16
I18196
sg17
I12241
sg18
I94
sa(dp54
g5
I30408
sg6
I0
sg7
I2689
sg8
I6521
sg9
I77
sg10
I17032
sg11
g35
sg13
I110399
sg14
I24842
sg15
F29.225125074386597
sg16
I60710
sg17
I3136
sg18
I87
sa(dp55
g5
I7286
sg6
I0
sg7
I10094
sg8
I3064
sg9
I90
sg10
I6737
sg11
g29
sg13
I155163
sg14
I9989
sg15
F30.225508213043213
sg16
I8208
sg17
I9131
sg18
I91
sa(dp56
g5
I6770
sg6
I0
sg7
I3278
sg8
I11993
sg9
I67
sg10
I8906
sg11
g29
sg13
I855701
sg14
I79230
sg15
F31.228865146636963
sg16
I154248
sg17
I9801
sg18
I93
sa(dp57
g5
I14398
sg6
I0
sg7
I8497
sg8
I17738
sg9
I43
sg10
I16742
sg11
g29
sg13
I228075
sg14
I4452
sg15
F32.22945308685303
sg16
I181003
sg17
I9248
sg18
I93
sa(dp58
g5
I5114
sg6
I0
sg7
I6592
sg8
I5731
sg9
I51
sg10
I30826
sg11
g29
sg13
I415294
sg14
I10594
sg15
F33.1966290473938
sg16
I51427
sg17
I5780
sg18
I87
sa(dp59
g5
I9187
sg6
I0
sg7
I9489
sg8
I11164
sg9
I60
sg10
I24552
sg11
g29
sg13
I303927
sg14
I4241
sg15
F34.19558620452881
sg16
I12375
sg17
I18430
sg18
I80
sa(dp60
g5
I21472
sg6
I0
sg7
I10910
sg8
I12045
sg9
I80
sg10
I24427
sg11
g35
sg13
I1133003
sg14
I10363
sg15
F35.20994806289673
sg16
I53853
sg17
I15003
sg18
I69
sa(dp61
g5
I22863
sg6
I0
sg7
I8756
sg8
I5584
sg9
I87
sg10
I8851
sg11
g35
sg13
I195376
sg14
I16281
sg15
F36.18199920654297
sg16
I28017
sg17
I9986
sg18
I84
sa(dp62
g5
I15484
sg6
I0
sg7
I11892
sg8
I4607
sg9
I78
sg10
I10468
sg11
g35
sg13
I214847
sg14
I12815
sg15
F37.20030617713928
sg16
I35558
sg17
I8867
sg18
I91
sa(dp63
g5
I10569
sg6
I0
sg7
I4940
sg8
I12688
sg9
I64
sg10
I11450
sg11
g35
sg13
I285112
sg14
I2392
sg15
F38.199191093444824
sg16
I45758
sg17
I7090
sg18
I88
sa(dp64
g5
I12973
sg6
I0
sg7
I7366
sg8
I1821
sg9
I61
sg10
I7984
sg11
g35
sg13
I247879
sg14
I28138
sg15
F39.16826319694519
sg16
I10264
sg17
I3106
sg18
I100
sa(dp65
g5
I22814
sg6
I0
sg7
I7671
sg8
I5834
sg9
I66
sg10
I16759
sg11
g12
sg13
I908446
sg14
I19088
sg15
F40.16918611526489
sg16
I32698
sg17
I6102
sg18
I97
sa(dp66
g5
I12989
sg6
I0
sg7
I9636
sg8
I7221
sg9
I74
sg10
I17343
sg11
g12
sg13
I412686
sg14
I4200
sg15
F41.170255184173584
sg16
I31449
sg17
I14296
sg18
I88
sa(dp67
g5
I15814
sg6
I0
sg7
I5788
sg8
I8680
sg9
I70
sg10
I9545
sg11
g12
sg13
I177683
sg14
I5255
sg15
F42.18782305717468
sg16
I45394
sg17
I12172
sg18
I83
sa(dp68
g5
I17862
sg6
I0
sg7
I13643
sg8
I2849
sg9
I64
sg10
I14191
sg11
g12
sg13
I237484
sg14
I16579
sg15
F43.17167901992798
sg16
I126776
sg17
I5580
sg18
I61
sa(dp69
g5
I21969
sg6
I0
sg7
I10625
sg8
I38689
sg9
I57
sg10
I50623
sg11
g12
sg13
I1086408
sg14
I52949
sg15
F44.17290210723877
sg16
I277219
sg17
I23422
sg18
I56
sasS'user'
p70
S'daniel'
p71
sS'session_number'
p72
I0
s.