(dp0
S'start_time'
p1
F1343953469.754257
sS'data'
p2
(lp3
(dp4
S'lowGamma'
p5
I5
sS'poorSignalLevel'
p6
I25
sS'highGamma'
p7
I3
sS'highAlpha'
p8
I7
sS'attention'
p9
I0
sS'highBeta'
p10
I3
sS'label'
p11
S'Blue'
p12
sS'delta'
p13
I143
sS'lowAlpha'
p14
I2
sS'time'
p15
F1.4066696166992188e-05
sS'theta'
p16
I7
sS'lowBeta'
p17
I10
sS'meditation'
p18
I0
sa(dp19
g5
I9002
sg6
I0
sg7
I5649
sg8
I28630
sg9
I0
sg10
I7666
sg11
g12
sg13
I292199
sg14
I13523
sg15
F2.193450927734375e-05
sg16
I27798
sg17
I3844
sg18
I0
sa(dp20
g5
I5777
sg6
I0
sg7
I4658
sg8
I14564
sg9
I0
sg10
I5076
sg11
g12
sg13
I234060
sg14
I15302
sg15
F2.5987625122070312e-05
sg16
I66904
sg17
I4402
sg18
I0
sa(dp21
g5
I2330
sg6
I0
sg7
I1122
sg8
I12289
sg9
I0
sg10
I6996
sg11
g12
sg13
I712687
sg14
I4952
sg15
F3.3855438232421875e-05
sg16
I48431
sg17
I4630
sg18
I0
sa(dp22
g5
I3528
sg6
I0
sg7
I2574
sg8
I4518
sg9
I30
sg10
I4562
sg11
g12
sg13
I191877
sg14
I16968
sg15
F3.790855407714844e-05
sg16
I90083
sg17
I4597
sg18
I30
sa(dp23
g5
I4570
sg6
I0
sg7
I2115
sg8
I10332
sg9
I50
sg10
I8208
sg11
g12
sg13
I81403
sg14
I6161
sg15
F4.291534423828125e-05
sg16
I50453
sg17
I1972
sg18
I27
sa(dp24
g5
I44666
sg6
I0
sg7
I20985
sg8
I280281
sg9
I69
sg10
I62609
sg11
g12
sg13
I1592855
sg14
I93281
sg15
F4.76837158203125e-06
sg16
I130664
sg17
I109620
sg18
I43
sa(dp25
g5
I6356
sg6
I0
sg7
I11941
sg8
I2108
sg9
I93
sg10
I12108
sg11
g12
sg13
I91676
sg14
I37211
sg15
F5.9604644775390625e-06
sg16
I13962
sg17
I5786
sg18
I57
sa(dp26
g5
I6001
sg6
I0
sg7
I1979
sg8
I10925
sg9
I91
sg10
I3459
sg11
g12
sg13
I157493
sg14
I14158
sg15
F6.9141387939453125e-06
sg16
I61619
sg17
I11555
sg18
I63
sa(dp27
g5
I25251
sg6
I0
sg7
I14363
sg8
I8325
sg9
I75
sg10
I24082
sg11
g12
sg13
I708404
sg14
I26743
sg15
F6.9141387939453125e-06
sg16
I274976
sg17
I13964
sg18
I50
sa(dp28
g5
I2727
sg6
I0
sg7
I3137
sg8
I6987
sg9
I77
sg10
I5687
sg11
S'Green'
p29
sg13
I81883
sg14
I10327
sg15
F5.9604644775390625e-06
sg16
I11390
sg17
I2907
sg18
I47
sa(dp30
g5
I8609
sg6
I0
sg7
I6075
sg8
I8977
sg9
I43
sg10
I6906
sg11
g29
sg13
I417435
sg14
I29468
sg15
F5.9604644775390625e-06
sg16
I128262
sg17
I3219
sg18
I27
sa(dp31
g5
I4984
sg6
I0
sg7
I3169
sg8
I953
sg9
I77
sg10
I6786
sg11
g29
sg13
I393585
sg14
I2428
sg15
F6.198883056640625e-06
sg16
I16312
sg17
I839
sg18
I16
sa(dp32
g5
I11745
sg6
I0
sg7
I16892
sg8
I8564
sg9
I87
sg10
I10666
sg11
g29
sg13
I27264
sg14
I23945
sg15
F7.152557373046875e-06
sg16
I25443
sg17
I9905
sg18
I41
sa(dp33
g5
I5797
sg6
I0
sg7
I3665
sg8
I3347
sg9
I75
sg10
I4014
sg11
S'Red'
p34
sg13
I225186
sg14
I9563
sg15
F6.198883056640625e-06
sg16
I11975
sg17
I2988
sg18
I37
sa(dp35
g5
I1679
sg6
I0
sg7
I829
sg8
I2974
sg9
I74
sg10
I745
sg11
g34
sg13
I50003
sg14
I3434
sg15
F6.198883056640625e-06
sg16
I10271
sg17
I2416
sg18
I43
sa(dp36
g5
I17478
sg6
I0
sg7
I19892
sg8
I5515
sg9
I47
sg10
I17114
sg11
g34
sg13
I1469207
sg14
I131339
sg15
F7.152557373046875e-06
sg16
I156574
sg17
I15899
sg18
I66
sa(dp37
g5
I26639
sg6
I0
sg7
I11101
sg8
I17835
sg9
I48
sg10
I14622
sg11
g34
sg13
I44737
sg14
I27608
sg15
F6.9141387939453125e-06
sg16
I20932
sg17
I36030
sg18
I64
sa(dp38
g5
I42628
sg6
I0
sg7
I19007
sg8
I5673
sg9
I54
sg10
I10885
sg11
g12
sg13
I12923
sg14
I3956
sg15
F5.9604644775390625e-06
sg16
I33891
sg17
I17004
sg18
I44
sa(dp39
g5
I1446
sg6
I0
sg7
I5017
sg8
I2931
sg9
I57
sg10
I5978
sg11
g12
sg13
I345801
sg14
I14620
sg15
F5.9604644775390625e-06
sg16
I102704
sg17
I5428
sg18
I30
sa(dp40
g5
I3675
sg6
I0
sg7
I3620
sg8
I3468
sg9
I54
sg10
I6866
sg11
g12
sg13
I88147
sg14
I22205
sg15
F6.9141387939453125e-06
sg16
I121179
sg17
I18825
sg18
I11
sa(dp41
g5
I44709
sg6
I0
sg7
I27104
sg8
I56201
sg9
I63
sg10
I64683
sg11
g12
sg13
I394346
sg14
I34971
sg15
F5.0067901611328125e-06
sg16
I61243
sg17
I44965
sg18
I8
sa(dp42
g5
I7721
sg6
I0
sg7
I2943
sg8
I5447
sg9
I47
sg10
I7015
sg11
g34
sg13
I1526945
sg14
I42658
sg15
F5.0067901611328125e-06
sg16
I23033
sg17
I5565
sg18
I38
sa(dp43
g5
I922
sg6
I0
sg7
I1803
sg8
I7629
sg9
I56
sg10
I1558
sg11
g34
sg13
I124967
sg14
I1126
sg15
F7.152557373046875e-06
sg16
I5657
sg17
I1872
sg18
I63
sa(dp44
g5
I7406
sg6
I0
sg7
I5191
sg8
I2951
sg9
I56
sg10
I4978
sg11
g34
sg13
I419097
sg14
I8668
sg15
F5.9604644775390625e-06
sg16
I93657
sg17
I1502
sg18
I56
sa(dp45
g5
I18471
sg6
I0
sg7
I12682
sg8
I33293
sg9
I24
sg10
I13032
sg11
g34
sg13
I882501
sg14
I40932
sg15
F5.9604644775390625e-06
sg16
I156660
sg17
I13848
sg18
I53
sa(dp46
g5
I14633
sg6
I0
sg7
I11872
sg8
I27599
sg9
I37
sg10
I30100
sg11
g29
sg13
I260190
sg14
I48071
sg15
F5.9604644775390625e-06
sg16
I56715
sg17
I22071
sg18
I44
sa(dp47
g5
I3639
sg6
I0
sg7
I5289
sg8
I1451
sg9
I26
sg10
I4915
sg11
g29
sg13
I47149
sg14
I24702
sg15
F5.9604644775390625e-06
sg16
I64179
sg17
I2767
sg18
I30
sa(dp48
g5
I2730
sg6
I0
sg7
I2897
sg8
I8862
sg9
I20
sg10
I6411
sg11
g29
sg13
I148693
sg14
I4842
sg15
F6.9141387939453125e-06
sg16
I198461
sg17
I5111
sg18
I27
sa(dp49
g5
I17794
sg6
I0
sg7
I18726
sg8
I26815
sg9
I35
sg10
I31704
sg11
g29
sg13
I3471186
sg14
I96998
sg15
F5.9604644775390625e-06
sg16
I120919
sg17
I38947
sg18
I37
sasS'user'
p50
S'michael'
p51
sS'session_number'
p52
I3
s.