(dp0
S'start_time'
p1
F1343953367.338555
sS'data'
p2
(lp3
(dp4
S'lowGamma'
p5
I3
sS'poorSignalLevel'
p6
I25
sS'highGamma'
p7
I1
sS'highAlpha'
p8
I3
sS'attention'
p9
I0
sS'highBeta'
p10
I3
sS'label'
p11
S'Red'
p12
sS'delta'
p13
I116
sS'lowAlpha'
p14
I7
sS'time'
p15
F1.5020370483398438e-05
sS'theta'
p16
I25
sS'lowBeta'
p17
I1
sS'meditation'
p18
I0
sa(dp19
g5
I6567
sg6
I25
sg7
I3537
sg8
I11812
sg9
I0
sg10
I6746
sg11
g12
sg13
I863765
sg14
I21780
sg15
F2.193450927734375e-05
sg16
I146461
sg17
I6479
sg18
I0
sa(dp20
g5
I13362
sg6
I0
sg7
I14112
sg8
I121315
sg9
I0
sg10
I30085
sg11
g12
sg13
I1883918
sg14
I30804
sg15
F2.6941299438476562e-05
sg16
I273512
sg17
I55159
sg18
I0
sa(dp21
g5
I11175
sg6
I0
sg7
I10172
sg8
I13770
sg9
I0
sg10
I16173
sg11
g12
sg13
I65099
sg14
I48814
sg15
F3.0994415283203125e-05
sg16
I42827
sg17
I16162
sg18
I0
sa(dp22
g5
I397
sg6
I0
sg7
I663
sg8
I2274
sg9
I0
sg10
I1166
sg11
g12
sg13
I64962
sg14
I4202
sg15
F3.814697265625e-05
sg16
I37209
sg17
I968
sg18
I0
sa(dp23
g5
I8927
sg6
I0
sg7
I5560
sg8
I23997
sg9
I37
sg10
I4153
sg11
g12
sg13
I78941
sg14
I17076
sg15
F4.315376281738281e-05
sg16
I64503
sg17
I23883
sg18
I44
sa(dp24
g5
I4570
sg6
I0
sg7
I2382
sg8
I15319
sg9
I29
sg10
I4695
sg11
g12
sg13
I148886
sg14
I18777
sg15
F5.9604644775390625e-06
sg16
I97160
sg17
I12146
sg18
I47
sa(dp25
g5
I2017
sg6
I0
sg7
I1871
sg8
I25008
sg9
I11
sg10
I2946
sg11
g12
sg13
I342011
sg14
I37650
sg15
F5.9604644775390625e-06
sg16
I196950
sg17
I2513
sg18
I48
sa(dp26
g5
I2187
sg6
I0
sg7
I1942
sg8
I1903
sg9
I8
sg10
I2967
sg11
g12
sg13
I429106
sg14
I7715
sg15
F5.9604644775390625e-06
sg16
I64182
sg17
I1431
sg18
I37
sa(dp27
g5
I5985
sg6
I0
sg7
I5079
sg8
I9775
sg9
I14
sg10
I8322
sg11
g12
sg13
I125886
sg14
I25580
sg15
F5.9604644775390625e-06
sg16
I89536
sg17
I3348
sg18
I34
sa(dp28
g5
I23457
sg6
I0
sg7
I26379
sg8
I22298
sg9
I27
sg10
I23690
sg11
S'Blue'
p29
sg13
I1348945
sg14
I30893
sg15
F7.152557373046875e-06
sg16
I188651
sg17
I11091
sg18
I29
sa(dp30
g5
I6476
sg6
I0
sg7
I1866
sg8
I6253
sg9
I41
sg10
I6664
sg11
g29
sg13
I354614
sg14
I18863
sg15
F6.9141387939453125e-06
sg16
I177334
sg17
I5314
sg18
I17
sa(dp31
g5
I15107
sg6
I0
sg7
I6616
sg8
I42439
sg9
I53
sg10
I27079
sg11
g29
sg13
I1437346
sg14
I39943
sg15
F6.9141387939453125e-06
sg16
I207701
sg17
I27024
sg18
I29
sa(dp32
g5
I4291
sg6
I0
sg7
I3479
sg8
I4680
sg9
I48
sg10
I5322
sg11
g29
sg13
I183002
sg14
I6397
sg15
F6.9141387939453125e-06
sg16
I98258
sg17
I7060
sg18
I11
sa(dp33
g5
I21766
sg6
I0
sg7
I10852
sg8
I19294
sg9
I56
sg10
I13999
sg11
S'Green'
p34
sg13
I37888
sg14
I22581
sg15
F6.9141387939453125e-06
sg16
I37131
sg17
I16812
sg18
I24
sa(dp35
g5
I4666
sg6
I0
sg7
I1430
sg8
I1608
sg9
I61
sg10
I5358
sg11
g34
sg13
I408873
sg14
I30497
sg15
F5.9604644775390625e-06
sg16
I58351
sg17
I3182
sg18
I40
sa(dp36
g5
I3618
sg6
I0
sg7
I1759
sg8
I1888
sg9
I61
sg10
I4226
sg11
g34
sg13
I64479
sg14
I6738
sg15
F5.9604644775390625e-06
sg16
I38934
sg17
I4974
sg18
I34
sa(dp37
g5
I4682
sg6
I0
sg7
I11582
sg8
I5538
sg9
I78
sg10
I8703
sg11
g34
sg13
I219387
sg14
I16042
sg15
F5.0067901611328125e-06
sg16
I29700
sg17
I2154
sg18
I56
sa(dp38
g5
I5229
sg6
I0
sg7
I3784
sg8
I6731
sg9
I60
sg10
I4865
sg11
g34
sg13
I126729
sg14
I12472
sg15
F6.198883056640625e-06
sg16
I101653
sg17
I4005
sg18
I40
sa(dp39
g5
I14273
sg6
I0
sg7
I21115
sg8
I23907
sg9
I60
sg10
I18097
sg11
g34
sg13
I928116
sg14
I74379
sg15
F5.9604644775390625e-06
sg16
I255349
sg17
I17159
sg18
I35
sa(dp40
g5
I4193
sg6
I0
sg7
I1159
sg8
I1526
sg9
I64
sg10
I4810
sg11
g34
sg13
I144483
sg14
I14466
sg15
F5.9604644775390625e-06
sg16
I14598
sg17
I3147
sg18
I53
sa(dp41
g5
I4532
sg6
I0
sg7
I5028
sg8
I8516
sg9
I35
sg10
I2007
sg11
g34
sg13
I130841
sg14
I23470
sg15
F1.0013580322265625e-05
sg16
I107839
sg17
I4572
sg18
I44
sa(dp42
g5
I7738
sg6
I0
sg7
I1935
sg8
I2532
sg9
I43
sg10
I3209
sg11
g12
sg13
I61261
sg14
I21943
sg15
F5.9604644775390625e-06
sg16
I19228
sg17
I4098
sg18
I66
sa(dp43
g5
I4924
sg6
I0
sg7
I2666
sg8
I13850
sg9
I43
sg10
I7969
sg11
g12
sg13
I949362
sg14
I13617
sg15
F5.9604644775390625e-06
sg16
I127259
sg17
I21036
sg18
I57
sa(dp44
g5
I4223
sg6
I0
sg7
I2500
sg8
I21379
sg9
I23
sg10
I8743
sg11
g12
sg13
I290601
sg14
I10668
sg15
F5.9604644775390625e-06
sg16
I238503
sg17
I10805
sg18
I35
sa(dp45
g5
I1303
sg6
I0
sg7
I3760
sg8
I5677
sg9
I48
sg10
I2161
sg11
g12
sg13
I36212
sg14
I12653
sg15
F5.9604644775390625e-06
sg16
I2090
sg17
I6729
sg18
I57
sa(dp46
g5
I5117
sg6
I0
sg7
I2382
sg8
I4513
sg9
I48
sg10
I4834
sg11
g29
sg13
I98462
sg14
I7170
sg15
F5.0067901611328125e-06
sg16
I53767
sg17
I3752
sg18
I37
sa(dp47
g5
I3154
sg6
I0
sg7
I5715
sg8
I20175
sg9
I35
sg10
I1976
sg11
g29
sg13
I451970
sg14
I7247
sg15
F5.9604644775390625e-06
sg16
I87411
sg17
I2545
sg18
I43
sa(dp48
g5
I2769
sg6
I0
sg7
I2590
sg8
I4403
sg9
I35
sg10
I4699
sg11
g29
sg13
I70973
sg14
I20289
sg15
F5.9604644775390625e-06
sg16
I122807
sg17
I2424
sg18
I50
sa(dp49
g5
I6200
sg6
I0
sg7
I2766
sg8
I2643
sg9
I21
sg10
I3696
sg11
g29
sg13
I205874
sg14
I20429
sg15
F5.0067901611328125e-06
sg16
I76521
sg17
I1135
sg18
I26
sasS'user'
p50
S'michael'
p51
sS'session_number'
p52
I2
s.