(dp0
S'start_time'
p1
F1343910930.764212
sS'data'
p2
(lp3
(dp4
S'lowGamma'
p5
I1
sS'poorSignalLevel'
p6
I25
sS'highGamma'
p7
I0
sS'highAlpha'
p8
I0
sS'attention'
p9
I0
sS'highBeta'
p10
I2
sS'label'
p11
S'Blue'
p12
sS'delta'
p13
I30
sS'lowAlpha'
p14
I1
sS'time'
p15
F0.01601099967956543
sS'theta'
p16
I2
sS'lowBeta'
p17
I1
sS'meditation'
p18
I0
sa(dp19
g5
I14376
sg6
I0
sg7
I11450
sg8
I44519
sg9
I0
sg10
I33800
sg11
g12
sg13
I475271
sg14
I226761
sg15
F0.01602315902709961
sg16
I755932
sg17
I41251
sg18
I0
sa(dp20
g5
I89364
sg6
I51
sg7
I61515
sg8
I241183
sg9
I0
sg10
I304898
sg11
g12
sg13
I1404892
sg14
I162793
sg15
F0.016028165817260742
sg16
I494238
sg17
I570383
sg18
I0
sa(dp21
g5
I676
sg6
I25
sg7
I309
sg8
I4971
sg9
I0
sg10
I4656
sg11
g12
sg13
I1571369
sg14
I1769
sg15
F0.016033172607421875
sg16
I49478
sg17
I8393
sg18
I0
sa(dp22
g5
I63163
sg6
I51
sg7
I19573
sg8
I244338
sg9
I0
sg10
I144441
sg11
g12
sg13
I236911
sg14
I169730
sg15
F0.0160372257232666
sg16
I338080
sg17
I132307
sg18
I0
sa(dp23
g5
I605
sg6
I51
sg7
I281
sg8
I7734
sg9
I0
sg10
I3359
sg11
g12
sg13
I1219865
sg14
I8724
sg15
F0.3006160259246826
sg16
I14775
sg17
I3940
sg18
I0
sa(dp24
g5
I6147
sg6
I0
sg7
I6644
sg8
I3965
sg9
I0
sg10
I7017
sg11
g12
sg13
I372592
sg14
I6199
sg15
F1.3176460266113281
sg16
I24529
sg17
I5742
sg18
I0
sa(dp25
g5
I5286
sg6
I0
sg7
I5306
sg8
I738
sg9
I0
sg10
I2897
sg11
g12
sg13
I34256
sg14
I3133
sg15
F2.30128812789917
sg16
I20389
sg17
I1563
sg18
I0
sa(dp26
g5
I24134
sg6
I0
sg7
I12891
sg8
I2108
sg9
I35
sg10
I25564
sg11
g12
sg13
I1600049
sg14
I35091
sg15
F3.304204225540161
sg16
I480744
sg17
I23364
sg18
I30
sa(dp27
g5
I12683
sg6
I0
sg7
I5040
sg8
I7753
sg9
I37
sg10
I14206
sg11
g12
sg13
I96287
sg14
I18732
sg15
F4.30314302444458
sg16
I159385
sg17
I16013
sg18
I34
sa(dp28
g5
I8654
sg6
I0
sg7
I43510
sg8
I18573
sg9
I44
sg10
I13078
sg11
S'Green'
p29
sg13
I2281814
sg14
I9641
sg15
F5.271031141281128
sg16
I69009
sg17
I24018
sg18
I43
sa(dp30
g5
I6698
sg6
I0
sg7
I11889
sg8
I8415
sg9
I57
sg10
I10978
sg11
g29
sg13
I36407
sg14
I4341
sg15
F6.305330038070679
sg16
I41363
sg17
I3815
sg18
I51
sa(dp31
g5
I14673
sg6
I0
sg7
I12980
sg8
I14554
sg9
I57
sg10
I17710
sg11
g29
sg13
I896419
sg14
I35965
sg15
F7.2865471839904785
sg16
I315566
sg17
I16550
sg18
I61
sa(dp32
g5
I11386
sg6
I0
sg7
I8478
sg8
I14327
sg9
I80
sg10
I14995
sg11
g29
sg13
I20538
sg14
I14306
sg15
F8.290174007415771
sg16
I7312
sg17
I7395
sg18
I83
sa(dp33
g5
I21707
sg6
I0
sg7
I12736
sg8
I13104
sg9
I77
sg10
I9335
sg11
g29
sg13
I95582
sg14
I11761
sg15
F9.273966073989868
sg16
I73330
sg17
I12108
sg18
I81
sa(dp34
g5
I12829
sg6
I0
sg7
I19936
sg8
I33234
sg9
I77
sg10
I23933
sg11
S'Red'
p35
sg13
I161139
sg14
I15971
sg15
F10.275912046432495
sg16
I62352
sg17
I7397
sg18
I91
sa(dp36
g5
I3340
sg6
I0
sg7
I3121
sg8
I21740
sg9
I74
sg10
I6184
sg11
g35
sg13
I887933
sg14
I21107
sg15
F11.257463216781616
sg16
I146351
sg17
I5227
sg18
I97
sa(dp37
g5
I10538
sg6
I0
sg7
I9780
sg8
I6173
sg9
I74
sg10
I18000
sg11
g35
sg13
I94391
sg14
I10292
sg15
F12.277131080627441
sg16
I10600
sg17
I900
sg18
I93
sa(dp38
g5
I16557
sg6
I0
sg7
I8714
sg8
I13823
sg9
I90
sg10
I24028
sg11
g35
sg13
I16513
sg14
I4866
sg15
F13.260519027709961
sg16
I22932
sg17
I3595
sg18
I97
sa(dp39
g5
I11898
sg6
I0
sg7
I17275
sg8
I17481
sg9
I93
sg10
I21106
sg11
g35
sg13
I14760
sg14
I33124
sg15
F14.261274099349976
sg16
I9985
sg17
I6822
sg18
I100
sa(dp40
g5
I26211
sg6
I0
sg7
I13172
sg8
I14070
sg9
I100
sg10
I11607
sg11
g35
sg13
I26087
sg14
I6038
sg15
F15.245866060256958
sg16
I94131
sg17
I15348
sg18
I94
sa(dp41
g5
I10017
sg6
I0
sg7
I15135
sg8
I106993
sg9
I81
sg10
I52731
sg11
g35
sg13
I1766278
sg14
I48465
sg15
F16.233549118041992
sg16
I409854
sg17
I25089
sg18
I84
sa(dp42
g5
I3799
sg6
I0
sg7
I5192
sg8
I5004
sg9
I53
sg10
I5520
sg11
g35
sg13
I300470
sg14
I7411
sg15
F17.231032133102417
sg16
I111110
sg17
I7087
sg18
I64
sa(dp43
g5
I1490
sg6
I0
sg7
I2987
sg8
I6459
sg9
I48
sg10
I20025
sg11
g35
sg13
I167850
sg14
I14205
sg15
F18.248839139938354
sg16
I67950
sg17
I1027
sg18
I48
sa(dp44
g5
I1013
sg6
I0
sg7
I1169
sg8
I4460
sg9
I51
sg10
I5525
sg11
g35
sg13
I469632
sg14
I5620
sg15
F19.216159105300903
sg16
I30804
sg17
I611
sg18
I53
sa(dp45
g5
I12837
sg6
I0
sg7
I10628
sg8
I10303
sg9
I53
sg10
I31033
sg11
g12
sg13
I366357
sg14
I75940
sg15
F20.21691107749939
sg16
I222101
sg17
I21415
sg18
I51
sa(dp46
g5
I1291
sg6
I0
sg7
I2069
sg8
I27155
sg9
I67
sg10
I11054
sg11
g12
sg13
I391995
sg14
I17097
sg15
F21.2152361869812
sg16
I20238
sg17
I6050
sg18
I80
sa(dp47
g5
I42893
sg6
I0
sg7
I20359
sg8
I63745
sg9
I51
sg10
I31102
sg11
g12
sg13
I1424965
sg14
I222579
sg15
F22.218414068222046
sg16
I401503
sg17
I114576
sg18
I87
sa(dp48
g5
I1585
sg6
I0
sg7
I1448
sg8
I3906
sg9
I43
sg10
I4836
sg11
g12
sg13
I89772
sg14
I13617
sg15
F23.218571186065674
sg16
I48144
sg17
I762
sg18
I90
sa(dp49
g5
I9297
sg6
I0
sg7
I9093
sg8
I4858
sg9
I60
sg10
I6978
sg11
g12
sg13
I4309
sg14
I7127
sg15
F24.20358920097351
sg16
I2565
sg17
I9131
sg18
I97
sa(dp50
g5
I9553
sg6
I0
sg7
I8707
sg8
I1062
sg9
I64
sg10
I9153
sg11
g29
sg13
I5864
sg14
I4968
sg15
F25.18721103668213
sg16
I25797
sg17
I3744
sg18
I75
sa(dp51
g5
I8336
sg6
I0
sg7
I7047
sg8
I9112
sg9
I75
sg10
I5581
sg11
g29
sg13
I6559
sg14
I11364
sg15
F26.217380046844482
sg16
I24609
sg17
I3940
sg18
I77
sa(dp52
g5
I10718
sg6
I0
sg7
I12583
sg8
I3758
sg9
I93
sg10
I7498
sg11
g29
sg13
I8485
sg14
I5534
sg15
F27.206658124923706
sg16
I9433
sg17
I4097
sg18
I80
sa(dp53
g5
I26244
sg6
I0
sg7
I10257
sg8
I21587
sg9
I93
sg10
I14525
sg11
g29
sg13
I5336
sg14
I5244
sg15
F28.206631183624268
sg16
I6815
sg17
I5452
sg18
I87
sa(dp54
g5
I11436
sg6
I0
sg7
I8986
sg8
I8949
sg9
I100
sg10
I15320
sg11
g29
sg13
I11472
sg14
I10053
sg15
F29.209509134292603
sg16
I10501
sg17
I3248
sg18
I100
sa(dp55
g5
I30612
sg6
I0
sg7
I30054
sg8
I12983
sg9
I100
sg10
I17732
sg11
g12
sg13
I4617
sg14
I15799
sg15
F30.175055027008057
sg16
I21691
sg17
I1380
sg18
I100
sa(dp56
g5
I6015
sg6
I0
sg7
I13008
sg8
I3606
sg9
I100
sg10
I40130
sg11
g12
sg13
I26935
sg14
I5102
sg15
F31.157310009002686
sg16
I2395
sg17
I4507
sg18
I97
sa(dp57
g5
I8203
sg6
I0
sg7
I21244
sg8
I12090
sg9
I100
sg10
I21720
sg11
g12
sg13
I6939
sg14
I3176
sg15
F32.15784215927124
sg16
I22409
sg17
I4797
sg18
I84
sa(dp58
g5
I13247
sg6
I0
sg7
I10331
sg8
I23845
sg9
I94
sg10
I18461
sg11
g12
sg13
I12044
sg14
I1529
sg15
F33.16051721572876
sg16
I16531
sg17
I6949
sg18
I83
sa(dp59
g5
I12727
sg6
I0
sg7
I9186
sg8
I4518
sg9
I87
sg10
I9919
sg11
g12
sg13
I4951
sg14
I9761
sg15
F34.15965914726257
sg16
I7781
sg17
I4919
sg18
I80
sa(dp60
g5
I11746
sg6
I0
sg7
I9795
sg8
I8128
sg9
I69
sg10
I11504
sg11
g35
sg13
I5852
sg14
I18436
sg15
F35.14964509010315
sg16
I2928
sg17
I8337
sg18
I100
sa(dp61
g5
I16418
sg6
I0
sg7
I8712
sg8
I15137
sg9
I69
sg10
I15746
sg11
g35
sg13
I2300
sg14
I1375
sg15
F36.129765033721924
sg16
I12918
sg17
I3841
sg18
I100
sa(dp62
g5
I12785
sg6
I0
sg7
I7272
sg8
I7815
sg9
I64
sg10
I8605
sg11
g35
sg13
I3406
sg14
I18507
sg15
F37.130695104599
sg16
I7346
sg17
I3381
sg18
I100
sa(dp63
g5
I9348
sg6
I0
sg7
I13576
sg8
I3063
sg9
I70
sg10
I32872
sg11
g35
sg13
I3635
sg14
I12896
sg15
F38.13148212432861
sg16
I16018
sg17
I4612
sg18
I100
sa(dp64
g5
I20637
sg6
I0
sg7
I16672
sg8
I3005
sg9
I74
sg10
I14049
sg11
g35
sg13
I21556
sg14
I18207
sg15
F39.131951093673706
sg16
I9104
sg17
I4160
sg18
I100
sa(dp65
g5
I17271
sg6
I0
sg7
I19249
sg8
I3680
sg9
I66
sg10
I10677
sg11
g29
sg13
I5480
sg14
I24080
sg15
F40.149677991867065
sg16
I15171
sg17
I10431
sg18
I100
sa(dp66
g5
I12064
sg6
I0
sg7
I5055
sg8
I14149
sg9
I78
sg10
I38865
sg11
g29
sg13
I1798
sg14
I16342
sg15
F41.13833999633789
sg16
I4985
sg17
I6711
sg18
I93
sa(dp67
g5
I13590
sg6
I0
sg7
I10430
sg8
I4146
sg9
I75
sg10
I12579
sg11
g29
sg13
I14464
sg14
I5047
sg15
F42.10164713859558
sg16
I7248
sg17
I3627
sg18
I96
sa(dp68
g5
I17098
sg6
I0
sg7
I12148
sg8
I17918
sg9
I77
sg10
I14080
sg11
g29
sg13
I2875
sg14
I6814
sg15
F43.1020450592041
sg16
I1453
sg17
I5221
sg18
I100
sa(dp69
g5
I20093
sg6
I0
sg7
I16455
sg8
I10096
sg9
I80
sg10
I18120
sg11
g29
sg13
I14910
sg14
I12843
sg15
F44.13627910614014
sg16
I16957
sg17
I8365
sg18
I97
sasS'user'
p70
S'michael'
p71
sS'session_number'
p72
I0
s.